; ModuleID = '23/944.c'
source_filename = "23/944.c"
target datalayout = "e-m:e-p270:32:32-p271:32:32-p272:64:64-i64:64-f80:128-n8:16:32:64-S128"
target triple = "x86_64-pc-linux-gnu"

@.str = private unnamed_addr constant [4 x i8] c"%s \00", align 1
@.str.1 = private unnamed_addr constant [3 x i8] c"%s\00", align 1

; Function Attrs: noinline nounwind uwtable
define dso_local void @main() #0 {
  %1 = alloca i32, align 4
  %2 = alloca i32, align 4
  %3 = alloca i32, align 4
  %4 = alloca i32, align 4
  %5 = alloca i32, align 4
  %6 = alloca i32, align 4
  %7 = alloca i32, align 4
  %8 = alloca i32, align 4
  %9 = alloca i32, align 4
  %10 = alloca i32, align 4
  %11 = alloca [100 x i8], align 16
  %12 = alloca [100 x [100 x i8]], align 16
  store i32 1, i32* %2, align 4
  store i32 0, i32* %4, align 4
  store i32 1, i32* %6, align 4
  store i32 0, i32* %7, align 4
  store i32 0, i32* %9, align 4
  store i32 0, i32* %10, align 4
  %13 = getelementptr inbounds [100 x i8], [100 x i8]* %11, i64 0, i64 0
  %14 = call i32 (i8*, ...) bitcast (i32 (...)* @gets to i32 (i8*, ...)*)(i8* %13)
  %15 = getelementptr inbounds [100 x i8], [100 x i8]* %11, i64 0, i64 0
  %16 = call i64 @strlen(i8* %15) #3
  %17 = trunc i64 %16 to i32
  store i32 %17, i32* %8, align 4
  store i32 0, i32* %10, align 4
  br label %18

18:                                               ; preds = %31, %0
  %19 = load i32, i32* %10, align 4
  %20 = load i32, i32* %8, align 4
  %21 = icmp slt i32 %19, %20
  br i1 %21, label %22, label %34

22:                                               ; preds = %18
  %23 = load i32, i32* %10, align 4
  %24 = sext i32 %23 to i64
  %25 = getelementptr inbounds [100 x i8], [100 x i8]* %11, i64 0, i64 %24
  %26 = load i8, i8* %25, align 1
  %27 = sext i8 %26 to i32
  %28 = icmp eq i32 %27, 32
  br i1 %28, label %29, label %30

29:                                               ; preds = %22
  store i32 1, i32* %9, align 4
  br label %34

30:                                               ; preds = %22
  br label %31

31:                                               ; preds = %30
  %32 = load i32, i32* %10, align 4
  %33 = add nsw i32 %32, 1
  store i32 %33, i32* %10, align 4
  br label %18

34:                                               ; preds = %29, %18
  %35 = load i32, i32* %9, align 4
  %36 = icmp eq i32 %35, 0
  br i1 %36, label %37, label %40

37:                                               ; preds = %34
  %38 = getelementptr inbounds [100 x i8], [100 x i8]* %11, i64 0, i64 0
  %39 = call i32 @puts(i8* %38)
  br label %140

40:                                               ; preds = %34
  %41 = load i32, i32* %9, align 4
  %42 = icmp eq i32 %41, 1
  br i1 %42, label %43, label %139

43:                                               ; preds = %40
  store i32 0, i32* %1, align 4
  br label %44

44:                                               ; preds = %69, %43
  %45 = load i32, i32* %1, align 4
  %46 = icmp slt i32 %45, 100
  br i1 %46, label %47, label %72

47:                                               ; preds = %44
  %48 = load i32, i32* %1, align 4
  %49 = sext i32 %48 to i64
  %50 = getelementptr inbounds [100 x i8], [100 x i8]* %11, i64 0, i64 %49
  %51 = load i8, i8* %50, align 1
  %52 = sext i8 %51 to i32
  %53 = icmp ne i32 %52, 32
  br i1 %53, label %54, label %63

54:                                               ; preds = %47
  %55 = load i32, i32* %1, align 4
  %56 = sext i32 %55 to i64
  %57 = getelementptr inbounds [100 x i8], [100 x i8]* %11, i64 0, i64 %56
  %58 = load i8, i8* %57, align 1
  %59 = getelementptr inbounds [100 x [100 x i8]], [100 x [100 x i8]]* %12, i64 0, i64 0
  %60 = load i32, i32* %1, align 4
  %61 = sext i32 %60 to i64
  %62 = getelementptr inbounds [100 x i8], [100 x i8]* %59, i64 0, i64 %61
  store i8 %58, i8* %62, align 1
  br label %68

63:                                               ; preds = %47
  %64 = getelementptr inbounds [100 x [100 x i8]], [100 x [100 x i8]]* %12, i64 0, i64 0
  %65 = load i32, i32* %1, align 4
  %66 = sext i32 %65 to i64
  %67 = getelementptr inbounds [100 x i8], [100 x i8]* %64, i64 0, i64 %66
  store i8 0, i8* %67, align 1
  br label %72

68:                                               ; preds = %54
  br label %69

69:                                               ; preds = %68
  %70 = load i32, i32* %1, align 4
  %71 = add nsw i32 %70, 1
  store i32 %71, i32* %1, align 4
  br label %44

72:                                               ; preds = %63, %44
  %73 = load i32, i32* %1, align 4
  %74 = add nsw i32 %73, 1
  store i32 %74, i32* %3, align 4
  br label %75

75:                                               ; preds = %118, %72
  %76 = load i32, i32* %3, align 4
  %77 = icmp slt i32 %76, 100
  br i1 %77, label %78, label %121

78:                                               ; preds = %75
  %79 = load i32, i32* %3, align 4
  %80 = sext i32 %79 to i64
  %81 = getelementptr inbounds [100 x i8], [100 x i8]* %11, i64 0, i64 %80
  %82 = load i8, i8* %81, align 1
  %83 = sext i8 %82 to i32
  %84 = icmp eq i32 %83, 32
  br i1 %84, label %85, label %97

85:                                               ; preds = %78
  %86 = load i32, i32* %6, align 4
  %87 = icmp eq i32 %86, 1
  br i1 %87, label %88, label %97

88:                                               ; preds = %85
  %89 = load i32, i32* %2, align 4
  %90 = sext i32 %89 to i64
  %91 = getelementptr inbounds [100 x [100 x i8]], [100 x [100 x i8]]* %12, i64 0, i64 %90
  %92 = load i32, i32* %7, align 4
  %93 = sext i32 %92 to i64
  %94 = getelementptr inbounds [100 x i8], [100 x i8]* %91, i64 0, i64 %93
  store i8 0, i8* %94, align 1
  %95 = load i32, i32* %2, align 4
  %96 = add nsw i32 %95, 1
  store i32 %96, i32* %2, align 4
  store i32 0, i32* %6, align 4
  store i32 0, i32* %7, align 4
  br label %97

97:                                               ; preds = %88, %85, %78
  %98 = load i32, i32* %3, align 4
  %99 = sext i32 %98 to i64
  %100 = getelementptr inbounds [100 x i8], [100 x i8]* %11, i64 0, i64 %99
  %101 = load i8, i8* %100, align 1
  %102 = sext i8 %101 to i32
  %103 = icmp ne i32 %102, 32
  br i1 %103, label %104, label %117

104:                                              ; preds = %97
  store i32 1, i32* %6, align 4
  %105 = load i32, i32* %3, align 4
  %106 = sext i32 %105 to i64
  %107 = getelementptr inbounds [100 x i8], [100 x i8]* %11, i64 0, i64 %106
  %108 = load i8, i8* %107, align 1
  %109 = load i32, i32* %2, align 4
  %110 = sext i32 %109 to i64
  %111 = getelementptr inbounds [100 x [100 x i8]], [100 x [100 x i8]]* %12, i64 0, i64 %110
  %112 = load i32, i32* %7, align 4
  %113 = sext i32 %112 to i64
  %114 = getelementptr inbounds [100 x i8], [100 x i8]* %111, i64 0, i64 %113
  store i8 %108, i8* %114, align 1
  %115 = load i32, i32* %7, align 4
  %116 = add nsw i32 %115, 1
  store i32 %116, i32* %7, align 4
  br label %117

117:                                              ; preds = %104, %97
  br label %118

118:                                              ; preds = %117
  %119 = load i32, i32* %3, align 4
  %120 = add nsw i32 %119, 1
  store i32 %120, i32* %3, align 4
  br label %75

121:                                              ; preds = %75
  %122 = load i32, i32* %2, align 4
  store i32 %122, i32* %5, align 4
  br label %123

123:                                              ; preds = %132, %121
  %124 = load i32, i32* %5, align 4
  %125 = icmp sgt i32 %124, 0
  br i1 %125, label %126, label %135

126:                                              ; preds = %123
  %127 = load i32, i32* %5, align 4
  %128 = sext i32 %127 to i64
  %129 = getelementptr inbounds [100 x [100 x i8]], [100 x [100 x i8]]* %12, i64 0, i64 %128
  %130 = getelementptr inbounds [100 x i8], [100 x i8]* %129, i64 0, i64 0
  %131 = call i32 (i8*, ...) @printf(i8* getelementptr inbounds ([4 x i8], [4 x i8]* @.str, i64 0, i64 0), i8* %130)
  br label %132

132:                                              ; preds = %126
  %133 = load i32, i32* %5, align 4
  %134 = add nsw i32 %133, -1
  store i32 %134, i32* %5, align 4
  br label %123

135:                                              ; preds = %123
  %136 = getelementptr inbounds [100 x [100 x i8]], [100 x [100 x i8]]* %12, i64 0, i64 0
  %137 = getelementptr inbounds [100 x i8], [100 x i8]* %136, i64 0, i64 0
  %138 = call i32 (i8*, ...) @printf(i8* getelementptr inbounds ([3 x i8], [3 x i8]* @.str.1, i64 0, i64 0), i8* %137)
  br label %139

139:                                              ; preds = %135, %40
  br label %140

140:                                              ; preds = %139, %37
  ret void
}

declare dso_local i32 @gets(...) #1

; Function Attrs: nounwind readonly
declare dso_local i64 @strlen(i8*) #2

declare dso_local i32 @puts(i8*) #1

declare dso_local i32 @printf(i8*, ...) #1


!llvm.module.flags = !{!0}
!llvm.ident = !{!1}

!0 = !{i32 1, !"wchar_size", i32 4}
!1 = !{!"clang version 10.0.0-4ubuntu1 "}
